(lp0
I-5
aI-4
aI-3
aI-2
aI-1
aI0
aI1
aI2
aI3
aI4
aI5
aI-5
aI-4
aI-3
aI-2
aI-1
aI0
aI1
aI2
aI3
aI4
aI5
aI-5
aI-4
aI-3
aI-2
aI-1
aI0
aI1
aI2
aI3
aI4
aI5
aI-5
aI-4
aI-3
aI-2
aI-1
aI0
aI1
aI2
aI3
aI4
aI5
aI-5
aI-4
aI-3
aI-2
aI-1
aI0
aI1
aI2
aI3
aI4
aI5
aI-5
aI-4
aI-3
aI-2
aI-1
aI0
aI1
aI2
aI3
aI4
aI5
aI-5
aI-4
aI-3
aI-2
aI-1
aI0
aI1
aI2
aI3
aI4
aI5
aI-5
aI-4
aI-3
aI-2
aI-1
aI0
aI1
aI2
aI3
aI4
aI5
aI-5
aI-4
aI-3
aI-2
aI-1
aI0
aI1
aI2
aI3
aI4
aI5
aI-5
aI-4
aI-3
aI-2
aI-1
aI0
aI1
aI2
aI3
aI4
aI5
aI-5
aI-4
aI-3
aI-2
aI-1
aI0
aI1
aI2
aI3
aI4
aI5
a.